target datalayout = "e-m:e-p270:32:32-p271:32:32-p272:64:64-i64:64-i128:128-f80:128-n8:16:32:64-S128"
target triple = "x86_64-pc-linux-gnu"

%"struct.ozz::animation::IKAimJob" = type { <4 x float>, <4 x float>, <4 x float>, <4 x float>, <4 x float>, float, float, ptr, ptr, ptr }

; Function Attrs: alwaysinline mustprogress nounwind uwtable
define internal noundef i32 @_ZL15_mm_movemask_psDv4_f(<4 x float> noundef %0) #3 {
  %2 = alloca <4 x float>, align 16
  store <4 x float> %0, ptr %2, align 16, !tbaa !20
  %3 = load <4 x float>, ptr %2, align 16, !tbaa !20
  %4 = call i32 @llvm.x86.sse.movmsk.ps(<4 x float> %3)
  ret i32 %4
}

; Function Attrs: alwaysinline mustprogress nounwind uwtable
define internal noundef <4 x float> @_ZL16_mm_castsi128_psDv2_x(<2 x i64> noundef %0) #3 {
  %2 = alloca <2 x i64>, align 16
  store <2 x i64> %0, ptr %2, align 16, !tbaa !20
  %3 = load <2 x i64>, ptr %2, align 16, !tbaa !20
  %4 = bitcast <2 x i64> %3 to <4 x float>
  ret <4 x float> %4
}

; Function Attrs: alwaysinline mustprogress nounwind uwtable
define internal noundef <2 x i64> @_ZL16_mm_castps_si128Dv4_f(<4 x float> noundef %0) #3 {
  %2 = alloca <4 x float>, align 16
  store <4 x float> %0, ptr %2, align 16, !tbaa !20
  %3 = load <4 x float>, ptr %2, align 16, !tbaa !20
  %4 = bitcast <4 x float> %3 to <2 x i64>
  ret <2 x i64> %4
}

; Function Attrs: alwaysinline mustprogress nounwind uwtable
define internal noundef <4 x float> @_ZL10_mm_and_psDv4_fS_(<4 x float> noundef %0, <4 x float> noundef %1) #3 {
  %3 = alloca <4 x float>, align 16
  %4 = alloca <4 x float>, align 16
  store <4 x float> %0, ptr %3, align 16, !tbaa !20
  store <4 x float> %1, ptr %4, align 16, !tbaa !20
  %5 = load <4 x float>, ptr %3, align 16, !tbaa !20
  %6 = bitcast <4 x float> %5 to <4 x i32>
  %7 = load <4 x float>, ptr %4, align 16, !tbaa !20
  %8 = bitcast <4 x float> %7 to <4 x i32>
  %9 = and <4 x i32> %6, %8
  %10 = bitcast <4 x i32> %9 to <4 x float>
  ret <4 x float> %10
}

; Function Attrs: alwaysinline mustprogress nounwind uwtable
define internal noundef <4 x float> @_ZL12_mm_cmpgt_ssDv4_fS_(<4 x float> noundef %0, <4 x float> noundef %1) #3 {
  %3 = alloca <4 x float>, align 16
  %4 = alloca <4 x float>, align 16
  store <4 x float> %0, ptr %3, align 16, !tbaa !20
  store <4 x float> %1, ptr %4, align 16, !tbaa !20
  %5 = load <4 x float>, ptr %3, align 16, !tbaa !20
  %6 = load <4 x float>, ptr %4, align 16, !tbaa !20
  %7 = load <4 x float>, ptr %3, align 16, !tbaa !20
  %8 = call <4 x float> @llvm.x86.sse.cmp.ss(<4 x float> %6, <4 x float> %7, i8 1)
  %9 = shufflevector <4 x float> %5, <4 x float> %8, <4 x i32> <i32 4, i32 1, i32 2, i32 3>
  ret <4 x float> %9
}

; Function Attrs: alwaysinline mustprogress nounwind uwtable
define internal noundef <4 x float> @_ZL12_mm_cmplt_ssDv4_fS_(<4 x float> noundef %0, <4 x float> noundef %1) #3 {
  %3 = alloca <4 x float>, align 16
  %4 = alloca <4 x float>, align 16
  store <4 x float> %0, ptr %3, align 16, !tbaa !20
  store <4 x float> %1, ptr %4, align 16, !tbaa !20
  %5 = load <4 x float>, ptr %3, align 16, !tbaa !20
  %6 = load <4 x float>, ptr %4, align 16, !tbaa !20
  %7 = call <4 x float> @llvm.x86.sse.cmp.ss(<4 x float> %5, <4 x float> %6, i8 1)
  ret <4 x float> %7
}

; Function Attrs: alwaysinline mustprogress nounwind uwtable
define internal noundef <4 x float> @_ZL11_mm_move_ssDv4_fS_(<4 x float> noundef %0, <4 x float> noundef %1) #3 {
  %3 = alloca <4 x float>, align 16
  %4 = alloca <4 x float>, align 16
  store <4 x float> %0, ptr %3, align 16, !tbaa !20
  store <4 x float> %1, ptr %4, align 16, !tbaa !20
  %5 = load <4 x float>, ptr %4, align 16, !tbaa !20
  %6 = extractelement <4 x float> %5, i32 0
  %7 = load <4 x float>, ptr %3, align 16
  %8 = insertelement <4 x float> %7, float %6, i32 0
  store <4 x float> %8, ptr %3, align 16
  %9 = load <4 x float>, ptr %3, align 16, !tbaa !20
  ret <4 x float> %9
}

; Function Attrs: alwaysinline mustprogress nounwind uwtable
define internal noundef <4 x float> @_ZL14_mm_setzero_psv() #3 {
  %1 = alloca <4 x float>, align 16
  store <4 x float> zeroinitializer, ptr %1, align 16, !tbaa !20
  %2 = load <4 x float>, ptr %1, align 16, !tbaa !20
  ret <4 x float> %2
}

; Function Attrs: alwaysinline mustprogress nounwind uwtable
define internal noundef <4 x float> @_ZL10_mm_add_ssDv4_fS_(<4 x float> noundef %0, <4 x float> noundef %1) #3 {
  %3 = alloca <4 x float>, align 16
  %4 = alloca <4 x float>, align 16
  store <4 x float> %0, ptr %3, align 16, !tbaa !20
  store <4 x float> %1, ptr %4, align 16, !tbaa !20
  %5 = load <4 x float>, ptr %4, align 16, !tbaa !20
  %6 = extractelement <4 x float> %5, i32 0
  %7 = load <4 x float>, ptr %3, align 16
  %8 = extractelement <4 x float> %7, i32 0
  %9 = fadd float %8, %6
  %10 = load <4 x float>, ptr %3, align 16
  %11 = insertelement <4 x float> %10, float %9, i32 0
  store <4 x float> %11, ptr %3, align 16
  %12 = load <4 x float>, ptr %3, align 16, !tbaa !20
  ret <4 x float> %12
}

; Function Attrs: alwaysinline mustprogress nounwind uwtable
define internal noundef <4 x float> @_ZL10_mm_mul_psDv4_fS_(<4 x float> noundef %0, <4 x float> noundef %1) #3 {
  %3 = alloca <4 x float>, align 16
  %4 = alloca <4 x float>, align 16
  store <4 x float> %0, ptr %3, align 16, !tbaa !20
  store <4 x float> %1, ptr %4, align 16, !tbaa !20
  %5 = load <4 x float>, ptr %3, align 16, !tbaa !20
  %6 = load <4 x float>, ptr %4, align 16, !tbaa !20
  %7 = fmul <4 x float> %5, %6
  ret <4 x float> %7
}

; Function Attrs: alwaysinline mustprogress nounwind uwtable
define internal noundef <4 x float> @_ZL10_mm_set_ssf(float noundef %0) #3 {
  %2 = alloca float, align 4
  %3 = alloca <4 x float>, align 16
  store float %0, ptr %2, align 4, !tbaa !27
  %4 = load float, ptr %2, align 4, !tbaa !27
  %5 = insertelement <4 x float> poison, float %4, i32 0
  %6 = insertelement <4 x float> %5, float 0.000000e+00, i32 1
  %7 = insertelement <4 x float> %6, float 0.000000e+00, i32 2
  %8 = insertelement <4 x float> %7, float 0.000000e+00, i32 3
  store <4 x float> %8, ptr %3, align 16, !tbaa !20
  %9 = load <4 x float>, ptr %3, align 16, !tbaa !20
  ret <4 x float> %9
}

; Function Attrs: alwaysinline mustprogress uwtable
define linkonce_odr dso_local noundef zeroext i1 @_ZN3ozz4math11AreAllTrue1EDv2_x(<2 x i64> noundef %0) #2 comdat {
  %2 = alloca <2 x i64>, align 16
  store <2 x i64> %0, ptr %2, align 16, !tbaa !20
  %3 = load <2 x i64>, ptr %2, align 16, !tbaa !20
  %4 = call noundef <4 x float> @_ZL16_mm_castsi128_psDv2_x(<2 x i64> noundef %3)
  %5 = call noundef i32 @_ZL15_mm_movemask_psDv4_f(<4 x float> noundef %4)
  %6 = and i32 %5, 1
  %7 = icmp eq i32 %6, 1
  ret i1 %7
}

; Function Attrs: alwaysinline mustprogress uwtable
define linkonce_odr dso_local noundef <2 x i64> @_ZN3ozz4math16IsNormalizedEst3EDv4_f(<4 x float> noundef %0) #2 comdat {
  %2 = alloca <4 x float>, align 16
  %3 = alloca <4 x float>, align 16
  %4 = alloca <4 x float>, align 16
  %5 = alloca <4 x float>, align 16
  %6 = alloca <4 x float>, align 16
  %7 = alloca <4 x float>, align 16
  store <4 x float> %0, ptr %2, align 16, !tbaa !20
  call void @llvm.lifetime.start.p0(i64 16, ptr %3) #9
  %8 = call noundef <4 x float> @_ZL10_mm_set_ssf(float noundef 0x3FF0083120000000)
  store <4 x float> %8, ptr %3, align 16, !tbaa !20
  call void @llvm.lifetime.start.p0(i64 16, ptr %4) #9
  %9 = call noundef <4 x float> @_ZL10_mm_set_ssf(float noundef 0x3FEFEF9DC0000000)
  store <4 x float> %9, ptr %4, align 16, !tbaa !20
  call void @llvm.lifetime.start.p0(i64 16, ptr %5) #9
  br label %10

10:                                               ; preds = %1
  call void @llvm.lifetime.start.p0(i64 16, ptr %6) #9
  %11 = load <4 x float>, ptr %2, align 16, !tbaa !20
  %12 = load <4 x float>, ptr %2, align 16, !tbaa !20
  %13 = call noundef <4 x float> @_ZL10_mm_mul_psDv4_fS_(<4 x float> noundef %11, <4 x float> noundef %12)
  store <4 x float> %13, ptr %6, align 16, !tbaa !20
  %14 = load <4 x float>, ptr %6, align 16, !tbaa !20
  %15 = load <4 x float>, ptr %6, align 16, !tbaa !20
  %16 = load <4 x float>, ptr %6, align 16, !tbaa !20
  %17 = shufflevector <4 x float> %15, <4 x float> %16, <4 x i32> <i32 2, i32 2, i32 6, i32 6>
  %18 = call noundef <4 x float> @_ZL10_mm_add_ssDv4_fS_(<4 x float> noundef %14, <4 x float> noundef %17)
  %19 = load <4 x float>, ptr %6, align 16, !tbaa !20
  %20 = load <4 x float>, ptr %6, align 16, !tbaa !20
  %21 = shufflevector <4 x float> %19, <4 x float> %20, <4 x i32> <i32 1, i32 1, i32 5, i32 5>
  %22 = call noundef <4 x float> @_ZL10_mm_add_ssDv4_fS_(<4 x float> noundef %18, <4 x float> noundef %21)
  store <4 x float> %22, ptr %5, align 16, !tbaa !20
  call void @llvm.lifetime.end.p0(i64 16, ptr %6) #9
  br label %23

23:                                               ; preds = %10
  br label %24

24:                                               ; preds = %23
  call void @llvm.lifetime.start.p0(i64 16, ptr %7) #9
  %25 = call noundef <4 x float> @_ZL14_mm_setzero_psv()
  %26 = load <4 x float>, ptr %5, align 16, !tbaa !20
  %27 = call noundef <4 x float> @_ZL11_mm_move_ssDv4_fS_(<4 x float> noundef %25, <4 x float> noundef %26)
  store <4 x float> %27, ptr %7, align 16, !tbaa !20
  %28 = load <4 x float>, ptr %7, align 16, !tbaa !20
  %29 = call noundef <4 x float> @_ZL12_mm_cmplt_ssDv4_fS_(<4 x float> noundef %28, <4 x float> noundef <float 0x3FF0083120000000, float 0.000000e+00, float 0.000000e+00, float 0.000000e+00>)
  %30 = load <4 x float>, ptr %7, align 16, !tbaa !20
  %31 = call noundef <4 x float> @_ZL12_mm_cmpgt_ssDv4_fS_(<4 x float> noundef %30, <4 x float> noundef <float 0x3FEFEF9DC0000000, float 0.000000e+00, float 0.000000e+00, float 0.000000e+00>)
  %32 = call noundef <4 x float> @_ZL10_mm_and_psDv4_fS_(<4 x float> noundef %29, <4 x float> noundef %31)
  %33 = call noundef <2 x i64> @_ZL16_mm_castps_si128Dv4_f(<4 x float> noundef %32)
  call void @llvm.lifetime.end.p0(i64 16, ptr %7) #9
  call void @llvm.lifetime.end.p0(i64 16, ptr %5) #9
  call void @llvm.lifetime.end.p0(i64 16, ptr %4) #9
  call void @llvm.lifetime.end.p0(i64 16, ptr %3) #9
  ret <2 x i64> %33
}

; Function Attrs: mustprogress uwtable
define dso_local noundef zeroext i1 @_ZNK3ozz9animation8IKAimJob8ValidateEv(ptr noundef nonnull align 16 dereferenceable(112) %0) #0 align 2 {
  %2 = alloca ptr, align 8
  %3 = alloca i8, align 1
  store ptr %0, ptr %2, align 8, !tbaa !4
  %4 = load ptr, ptr %2, align 8
  call void @llvm.lifetime.start.p0(i64 1, ptr %3) #9
  store i8 1, ptr %3, align 1, !tbaa !9
  %5 = getelementptr inbounds nuw %"struct.ozz::animation::IKAimJob", ptr %4, i32 0, i32 7
  %6 = load ptr, ptr %5, align 8, !tbaa !11
  %7 = icmp ne ptr %6, null
  %8 = zext i1 %7 to i32
  %9 = load i8, ptr %3, align 1, !tbaa !9, !range !17, !noundef !18
  %10 = trunc i8 %9 to i1
  %11 = zext i1 %10 to i32
  %12 = and i32 %11, %8
  %13 = icmp ne i32 %12, 0
  %14 = zext i1 %13 to i8
  store i8 %14, ptr %3, align 1, !tbaa !9
  %15 = getelementptr inbounds nuw %"struct.ozz::animation::IKAimJob", ptr %4, i32 0, i32 8
  %16 = load ptr, ptr %15, align 16, !tbaa !19
  %17 = icmp ne ptr %16, null
  %18 = zext i1 %17 to i32
  %19 = load i8, ptr %3, align 1, !tbaa !9, !range !17, !noundef !18
  %20 = trunc i8 %19 to i1
  %21 = zext i1 %20 to i32
  %22 = and i32 %21, %18
  %23 = icmp ne i32 %22, 0
  %24 = zext i1 %23 to i8
  store i8 %24, ptr %3, align 1, !tbaa !9
  %25 = getelementptr inbounds nuw %"struct.ozz::animation::IKAimJob", ptr %4, i32 0, i32 1
  %26 = load <4 x float>, ptr %25, align 16, !tbaa !20
  %27 = call noundef <2 x i64> @_ZN3ozz4math16IsNormalizedEst3EDv4_f(<4 x float> noundef %26)
  %28 = call noundef zeroext i1 @_ZN3ozz4math11AreAllTrue1EDv2_x(<2 x i64> noundef %27)
  %29 = zext i1 %28 to i32
  %30 = load i8, ptr %3, align 1, !tbaa !9, !range !17, !noundef !18
  %31 = trunc i8 %30 to i1
  %32 = zext i1 %31 to i32
  %33 = and i32 %32, %29
  %34 = icmp ne i32 %33, 0
  %35 = zext i1 %34 to i8
  store i8 %35, ptr %3, align 1, !tbaa !9
  %36 = load i8, ptr %3, align 1, !tbaa !9, !range !17, !noundef !18
  %37 = trunc i8 %36 to i1
  call void @llvm.lifetime.end.p0(i64 1, ptr %3) #9
  ret i1 %37
}