; Function Attrs: mustprogress nofree norecurse nosync nounwind willreturn memory(argmem: read) uwtable
define dso_local noundef zeroext i1 @_ZNK3ozz9animation8IKAimJob8ValidateEv(ptr noundef nonnull readonly align 16 captures(none) dereferenceable(112) %0) local_unnamed_addr #0 align 2 {
  %2 = getelementptr inbounds nuw i8, ptr %0, i64 88
  %3 = load ptr, ptr %2, align 8, !tbaa !4
  %4 = icmp ne ptr %3, null
  %5 = getelementptr inbounds nuw i8, ptr %0, i64 96
  %6 = load ptr, ptr %5, align 16, !tbaa !13
  %7 = icmp ne ptr %6, null
  %8 = and i1 %4, %7
  %9 = getelementptr inbounds nuw i8, ptr %0, i64 16
  %10 = load <4 x float>, ptr %9, align 16, !tbaa !14
  %11 = fmul <4 x float> %10, %10
  %shift = shufflevector <4 x float> %11, <4 x float> poison, <4 x i32> <i32 2, i32 poison, i32 poison, i32 poison>
  %12 = fadd <4 x float> %11, %shift
  %shift4 = shufflevector <4 x float> %11, <4 x float> poison, <4 x i32> <i32 1, i32 poison, i32 poison, i32 poison>
  %13 = fadd <4 x float> %shift4, %12
  %14 = shufflevector <4 x float> %13, <4 x float> <float poison, float 0.000000e+00, float 0.000000e+00, float 0.000000e+00>, <4 x i32> <i32 0, i32 5, i32 6, i32 7>
  %15 = tail call noundef <4 x float> @llvm.x86.sse.cmp.ss(<4 x float> %14, <4 x float> <float 0x3FF0083120000000, float poison, float poison, float poison>, i8 1)
  %16 = tail call <4 x float> @llvm.x86.sse.cmp.ss(<4 x float> <float 0x3FEFEF9DC0000000, float poison, float poison, float poison>, <4 x float> %14, i8 1)
  %17 = shufflevector <4 x float> %16, <4 x float> <float poison, float 0.000000e+00, float 0.000000e+00, float 0.000000e+00>, <4 x i32> <i32 0, i32 5, i32 6, i32 7>
  %18 = bitcast <4 x float> %15 to <4 x i32>
  %19 = bitcast <4 x float> %17 to <4 x i32>
  %20 = and <4 x i32> %19, %18
  %21 = icmp slt <4 x i32> %20, zeroinitializer
  %22 = bitcast <4 x i1> %21 to i4
  %23 = and i4 %22, 1
  %24 = icmp ne i4 %23, 0
  %25 = and i1 %8, %24
  ret i1 %25
}